target datalayout = "e-m:e-p270:32:32-p271:32:32-p272:64:64-i64:64-i128:128-f80:128-n8:16:32:64-S128"
target triple = "x86_64-pc-linux-gnu"

; Function Attrs: alwaysinline nounwind willreturn memory(none) uwtable
define internal zeroext i8 @av_clip_uint8_c(i32 noundef %0) #3 {
  %2 = alloca i8, align 1
  %3 = alloca i32, align 4
  store i32 %0, ptr %3, align 4, !tbaa !15
  %4 = load i32, ptr %3, align 4, !tbaa !15
  %5 = and i32 %4, -256
  %6 = icmp ne i32 %5, 0
  br i1 %6, label %7, label %12

7:                                                ; preds = %1
  %8 = load i32, ptr %3, align 4, !tbaa !15
  %9 = xor i32 %8, -1
  %10 = ashr i32 %9, 31
  %11 = trunc i32 %10 to i8
  store i8 %11, ptr %2, align 1
  br label %15

12:                                               ; preds = %1
  %13 = load i32, ptr %3, align 4, !tbaa !15
  %14 = trunc i32 %13 to i8
  store i8 %14, ptr %2, align 1
  br label %15

15:                                               ; preds = %12, %7
  %16 = load i8, ptr %2, align 1
  ret i8 %16
}

; Function Attrs: alwaysinline nounwind uwtable
define internal void @iadst4_1d(ptr noundef %0, i64 noundef %1, ptr noundef %2, i32 noundef %3) #6 {
  %5 = alloca ptr, align 8
  %6 = alloca i64, align 8
  %7 = alloca ptr, align 8
  %8 = alloca i32, align 4
  %9 = alloca i32, align 4
  %10 = alloca i32, align 4
  %11 = alloca i32, align 4
  %12 = alloca i32, align 4
  store ptr %0, ptr %5, align 8, !tbaa !88
  store i64 %1, ptr %6, align 8, !tbaa !12
  store ptr %2, ptr %7, align 8, !tbaa !88
  store i32 %3, ptr %8, align 4, !tbaa !15
  call void @llvm.lifetime.start.p0(i64 4, ptr %9) #10
  call void @llvm.lifetime.start.p0(i64 4, ptr %10) #10
  call void @llvm.lifetime.start.p0(i64 4, ptr %11) #10
  call void @llvm.lifetime.start.p0(i64 4, ptr %12) #10
  %13 = load ptr, ptr %5, align 8, !tbaa !88
  %14 = load i64, ptr %6, align 8, !tbaa !12
  %15 = mul nsw i64 0, %14
  %16 = getelementptr inbounds i16, ptr %13, i64 %15
  %17 = load i16, ptr %16, align 2, !tbaa !90
  %18 = sext i16 %17 to i32
  %19 = mul nsw i32 5283, %18
  %20 = load ptr, ptr %5, align 8, !tbaa !88
  %21 = load i64, ptr %6, align 8, !tbaa !12
  %22 = mul nsw i64 2, %21
  %23 = getelementptr inbounds i16, ptr %20, i64 %22
  %24 = load i16, ptr %23, align 2, !tbaa !90
  %25 = sext i16 %24 to i32
  %26 = mul nsw i32 15212, %25
  %27 = add nsw i32 %19, %26
  %28 = load ptr, ptr %5, align 8, !tbaa !88
  %29 = load i64, ptr %6, align 8, !tbaa !12
  %30 = mul nsw i64 3, %29
  %31 = getelementptr inbounds i16, ptr %28, i64 %30
  %32 = load i16, ptr %31, align 2, !tbaa !90
  %33 = sext i16 %32 to i32
  %34 = mul nsw i32 9929, %33
  %35 = add nsw i32 %27, %34
  store i32 %35, ptr %9, align 4, !tbaa !15
  %36 = load ptr, ptr %5, align 8, !tbaa !88
  %37 = load i64, ptr %6, align 8, !tbaa !12
  %38 = mul nsw i64 0, %37
  %39 = getelementptr inbounds i16, ptr %36, i64 %38
  %40 = load i16, ptr %39, align 2, !tbaa !90
  %41 = sext i16 %40 to i32
  %42 = mul nsw i32 9929, %41
  %43 = load ptr, ptr %5, align 8, !tbaa !88
  %44 = load i64, ptr %6, align 8, !tbaa !12
  %45 = mul nsw i64 2, %44
  %46 = getelementptr inbounds i16, ptr %43, i64 %45
  %47 = load i16, ptr %46, align 2, !tbaa !90
  %48 = sext i16 %47 to i32
  %49 = mul nsw i32 5283, %48
  %50 = sub nsw i32 %42, %49
  %51 = load ptr, ptr %5, align 8, !tbaa !88
  %52 = load i64, ptr %6, align 8, !tbaa !12
  %53 = mul nsw i64 3, %52
  %54 = getelementptr inbounds i16, ptr %51, i64 %53
  %55 = load i16, ptr %54, align 2, !tbaa !90
  %56 = sext i16 %55 to i32
  %57 = mul nsw i32 15212, %56
  %58 = sub nsw i32 %50, %57
  store i32 %58, ptr %10, align 4, !tbaa !15
  %59 = load ptr, ptr %5, align 8, !tbaa !88
  %60 = load i64, ptr %6, align 8, !tbaa !12
  %61 = mul nsw i64 0, %60
  %62 = getelementptr inbounds i16, ptr %59, i64 %61
  %63 = load i16, ptr %62, align 2, !tbaa !90
  %64 = sext i16 %63 to i32
  %65 = load ptr, ptr %5, align 8, !tbaa !88
  %66 = load i64, ptr %6, align 8, !tbaa !12
  %67 = mul nsw i64 2, %66
  %68 = getelementptr inbounds i16, ptr %65, i64 %67
  %69 = load i16, ptr %68, align 2, !tbaa !90
  %70 = sext i16 %69 to i32
  %71 = sub nsw i32 %64, %70
  %72 = load ptr, ptr %5, align 8, !tbaa !88
  %73 = load i64, ptr %6, align 8, !tbaa !12
  %74 = mul nsw i64 3, %73
  %75 = getelementptr inbounds i16, ptr %72, i64 %74
  %76 = load i16, ptr %75, align 2, !tbaa !90
  %77 = sext i16 %76 to i32
  %78 = add nsw i32 %71, %77
  %79 = mul nsw i32 13377, %78
  store i32 %79, ptr %11, align 4, !tbaa !15
  %80 = load ptr, ptr %5, align 8, !tbaa !88
  %81 = load i64, ptr %6, align 8, !tbaa !12
  %82 = mul nsw i64 1, %81
  %83 = getelementptr inbounds i16, ptr %80, i64 %82
  %84 = load i16, ptr %83, align 2, !tbaa !90
  %85 = sext i16 %84 to i32
  %86 = mul nsw i32 13377, %85
  store i32 %86, ptr %12, align 4, !tbaa !15
  %87 = load i32, ptr %9, align 4, !tbaa !15
  %88 = load i32, ptr %12, align 4, !tbaa !15
  %89 = add nsw i32 %87, %88
  %90 = add nsw i32 %89, 8192
  %91 = ashr i32 %90, 14
  %92 = trunc i32 %91 to i16
  %93 = load ptr, ptr %7, align 8, !tbaa !88
  %94 = getelementptr inbounds i16, ptr %93, i64 0
  store i16 %92, ptr %94, align 2, !tbaa !90
  %95 = load i32, ptr %10, align 4, !tbaa !15
  %96 = load i32, ptr %12, align 4, !tbaa !15
  %97 = add nsw i32 %95, %96
  %98 = add nsw i32 %97, 8192
  %99 = ashr i32 %98, 14
  %100 = trunc i32 %99 to i16
  %101 = load ptr, ptr %7, align 8, !tbaa !88
  %102 = getelementptr inbounds i16, ptr %101, i64 1
  store i16 %100, ptr %102, align 2, !tbaa !90
  %103 = load i32, ptr %11, align 4, !tbaa !15
  %104 = add nsw i32 %103, 8192
  %105 = ashr i32 %104, 14
  %106 = trunc i32 %105 to i16
  %107 = load ptr, ptr %7, align 8, !tbaa !88
  %108 = getelementptr inbounds i16, ptr %107, i64 2
  store i16 %106, ptr %108, align 2, !tbaa !90
  %109 = load i32, ptr %9, align 4, !tbaa !15
  %110 = load i32, ptr %10, align 4, !tbaa !15
  %111 = add nsw i32 %109, %110
  %112 = load i32, ptr %12, align 4, !tbaa !15
  %113 = sub nsw i32 %111, %112
  %114 = add nsw i32 %113, 8192
  %115 = ashr i32 %114, 14
  %116 = trunc i32 %115 to i16
  %117 = load ptr, ptr %7, align 8, !tbaa !88
  %118 = getelementptr inbounds i16, ptr %117, i64 3
  store i16 %116, ptr %118, align 2, !tbaa !90
  call void @llvm.lifetime.end.p0(i64 4, ptr %12) #10
  call void @llvm.lifetime.end.p0(i64 4, ptr %11) #10
  call void @llvm.lifetime.end.p0(i64 4, ptr %10) #10
  call void @llvm.lifetime.end.p0(i64 4, ptr %9) #10
  ret void
}

; Function Attrs: alwaysinline nounwind uwtable
define internal void @idct4_1d(ptr noundef %0, i64 noundef %1, ptr noundef %2, i32 noundef %3) #6 {
  %5 = alloca ptr, align 8
  %6 = alloca i64, align 8
  %7 = alloca ptr, align 8
  %8 = alloca i32, align 4
  %9 = alloca i32, align 4
  %10 = alloca i32, align 4
  %11 = alloca i32, align 4
  %12 = alloca i32, align 4
  store ptr %0, ptr %5, align 8, !tbaa !88
  store i64 %1, ptr %6, align 8, !tbaa !12
  store ptr %2, ptr %7, align 8, !tbaa !88
  store i32 %3, ptr %8, align 4, !tbaa !15
  call void @llvm.lifetime.start.p0(i64 4, ptr %9) #10
  call void @llvm.lifetime.start.p0(i64 4, ptr %10) #10
  call void @llvm.lifetime.start.p0(i64 4, ptr %11) #10
  call void @llvm.lifetime.start.p0(i64 4, ptr %12) #10
  %13 = load ptr, ptr %5, align 8, !tbaa !88
  %14 = load i64, ptr %6, align 8, !tbaa !12
  %15 = mul nsw i64 0, %14
  %16 = getelementptr inbounds i16, ptr %13, i64 %15
  %17 = load i16, ptr %16, align 2, !tbaa !90
  %18 = sext i16 %17 to i32
  %19 = load ptr, ptr %5, align 8, !tbaa !88
  %20 = load i64, ptr %6, align 8, !tbaa !12
  %21 = mul nsw i64 2, %20
  %22 = getelementptr inbounds i16, ptr %19, i64 %21
  %23 = load i16, ptr %22, align 2, !tbaa !90
  %24 = sext i16 %23 to i32
  %25 = add nsw i32 %18, %24
  %26 = mul nsw i32 %25, 11585
  %27 = add nsw i32 %26, 8192
  %28 = ashr i32 %27, 14
  store i32 %28, ptr %9, align 4, !tbaa !15
  %29 = load ptr, ptr %5, align 8, !tbaa !88
  %30 = load i64, ptr %6, align 8, !tbaa !12
  %31 = mul nsw i64 0, %30
  %32 = getelementptr inbounds i16, ptr %29, i64 %31
  %33 = load i16, ptr %32, align 2, !tbaa !90
  %34 = sext i16 %33 to i32
  %35 = load ptr, ptr %5, align 8, !tbaa !88
  %36 = load i64, ptr %6, align 8, !tbaa !12
  %37 = mul nsw i64 2, %36
  %38 = getelementptr inbounds i16, ptr %35, i64 %37
  %39 = load i16, ptr %38, align 2, !tbaa !90
  %40 = sext i16 %39 to i32
  %41 = sub nsw i32 %34, %40
  %42 = mul nsw i32 %41, 11585
  %43 = add nsw i32 %42, 8192
  %44 = ashr i32 %43, 14
  store i32 %44, ptr %10, align 4, !tbaa !15
  %45 = load ptr, ptr %5, align 8, !tbaa !88
  %46 = load i64, ptr %6, align 8, !tbaa !12
  %47 = mul nsw i64 1, %46
  %48 = getelementptr inbounds i16, ptr %45, i64 %47
  %49 = load i16, ptr %48, align 2, !tbaa !90
  %50 = sext i16 %49 to i32
  %51 = mul nsw i32 %50, 6270
  %52 = load ptr, ptr %5, align 8, !tbaa !88
  %53 = load i64, ptr %6, align 8, !tbaa !12
  %54 = mul nsw i64 3, %53
  %55 = getelementptr inbounds i16, ptr %52, i64 %54
  %56 = load i16, ptr %55, align 2, !tbaa !90
  %57 = sext i16 %56 to i32
  %58 = mul nsw i32 %57, 15137
  %59 = sub nsw i32 %51, %58
  %60 = add nsw i32 %59, 8192
  %61 = ashr i32 %60, 14
  store i32 %61, ptr %11, align 4, !tbaa !15
  %62 = load ptr, ptr %5, align 8, !tbaa !88
  %63 = load i64, ptr %6, align 8, !tbaa !12
  %64 = mul nsw i64 1, %63
  %65 = getelementptr inbounds i16, ptr %62, i64 %64
  %66 = load i16, ptr %65, align 2, !tbaa !90
  %67 = sext i16 %66 to i32
  %68 = mul nsw i32 %67, 15137
  %69 = load ptr, ptr %5, align 8, !tbaa !88
  %70 = load i64, ptr %6, align 8, !tbaa !12
  %71 = mul nsw i64 3, %70
  %72 = getelementptr inbounds i16, ptr %69, i64 %71
  %73 = load i16, ptr %72, align 2, !tbaa !90
  %74 = sext i16 %73 to i32
  %75 = mul nsw i32 %74, 6270
  %76 = add nsw i32 %68, %75
  %77 = add nsw i32 %76, 8192
  %78 = ashr i32 %77, 14
  store i32 %78, ptr %12, align 4, !tbaa !15
  %79 = load i32, ptr %9, align 4, !tbaa !15
  %80 = load i32, ptr %12, align 4, !tbaa !15
  %81 = add nsw i32 %79, %80
  %82 = trunc i32 %81 to i16
  %83 = load ptr, ptr %7, align 8, !tbaa !88
  %84 = getelementptr inbounds i16, ptr %83, i64 0
  store i16 %82, ptr %84, align 2, !tbaa !90
  %85 = load i32, ptr %10, align 4, !tbaa !15
  %86 = load i32, ptr %11, align 4, !tbaa !15
  %87 = add nsw i32 %85, %86
  %88 = trunc i32 %87 to i16
  %89 = load ptr, ptr %7, align 8, !tbaa !88
  %90 = getelementptr inbounds i16, ptr %89, i64 1
  store i16 %88, ptr %90, align 2, !tbaa !90
  %91 = load i32, ptr %10, align 4, !tbaa !15
  %92 = load i32, ptr %11, align 4, !tbaa !15
  %93 = sub nsw i32 %91, %92
  %94 = trunc i32 %93 to i16
  %95 = load ptr, ptr %7, align 8, !tbaa !88
  %96 = getelementptr inbounds i16, ptr %95, i64 2
  store i16 %94, ptr %96, align 2, !tbaa !90
  %97 = load i32, ptr %9, align 4, !tbaa !15
  %98 = load i32, ptr %12, align 4, !tbaa !15
  %99 = sub nsw i32 %97, %98
  %100 = trunc i32 %99 to i16
  %101 = load ptr, ptr %7, align 8, !tbaa !88
  %102 = getelementptr inbounds i16, ptr %101, i64 3
  store i16 %100, ptr %102, align 2, !tbaa !90
  call void @llvm.lifetime.end.p0(i64 4, ptr %12) #10
  call void @llvm.lifetime.end.p0(i64 4, ptr %11) #10
  call void @llvm.lifetime.end.p0(i64 4, ptr %10) #10
  call void @llvm.lifetime.end.p0(i64 4, ptr %9) #10
  ret void
}

; Function Attrs: nounwind uwtable
define internal void @idct_iadst_4x4_add_c(ptr noundef %0, i64 noundef %1, ptr noundef %2, i32 noundef %3) #1 {
  %5 = alloca ptr, align 8
  %6 = alloca i64, align 8
  %7 = alloca ptr, align 8
  %8 = alloca i32, align 4
  %9 = alloca i32, align 4
  %10 = alloca i32, align 4
  %11 = alloca ptr, align 8
  %12 = alloca ptr, align 8
  %13 = alloca [16 x i16], align 16
  %14 = alloca [4 x i16], align 2
  store ptr %0, ptr %5, align 8, !tbaa !10
  store i64 %1, ptr %6, align 8, !tbaa !12
  store ptr %2, ptr %7, align 8, !tbaa !88
  store i32 %3, ptr %8, align 4, !tbaa !15
  call void @llvm.lifetime.start.p0(i64 4, ptr %9) #10
  call void @llvm.lifetime.start.p0(i64 4, ptr %10) #10
  call void @llvm.lifetime.start.p0(i64 8, ptr %11) #10
  %15 = load ptr, ptr %5, align 8, !tbaa !10
  store ptr %15, ptr %11, align 8, !tbaa !10
  call void @llvm.lifetime.start.p0(i64 8, ptr %12) #10
  %16 = load ptr, ptr %7, align 8, !tbaa !88
  store ptr %16, ptr %12, align 8, !tbaa !88
  call void @llvm.lifetime.start.p0(i64 32, ptr %13) #10
  call void @llvm.lifetime.start.p0(i64 8, ptr %14) #10
  %17 = load i64, ptr %6, align 8, !tbaa !12
  %18 = udiv i64 %17, 1
  store i64 %18, ptr %6, align 8, !tbaa !12
  store i32 0, ptr %9, align 4, !tbaa !15
  br label %19

19:                                               ; preds = %32, %4
  %20 = load i32, ptr %9, align 4, !tbaa !15
  %21 = icmp slt i32 %20, 4
  br i1 %21, label %22, label %35

22:                                               ; preds = %19
  %23 = load ptr, ptr %12, align 8, !tbaa !88
  %24 = load i32, ptr %9, align 4, !tbaa !15
  %25 = sext i32 %24 to i64
  %26 = getelementptr inbounds i16, ptr %23, i64 %25
  %27 = getelementptr inbounds [16 x i16], ptr %13, i64 0, i64 0
  %28 = load i32, ptr %9, align 4, !tbaa !15
  %29 = mul nsw i32 %28, 4
  %30 = sext i32 %29 to i64
  %31 = getelementptr inbounds i16, ptr %27, i64 %30
  call void @idct4_1d(ptr noundef %26, i64 noundef 4, ptr noundef %31, i32 noundef 0)
  br label %32

32:                                               ; preds = %22
  %33 = load i32, ptr %9, align 4, !tbaa !15
  %34 = add nsw i32 %33, 1
  store i32 %34, ptr %9, align 4, !tbaa !15
  br label %19, !llvm.loop !100

35:                                               ; preds = %19
  %36 = load ptr, ptr %12, align 8, !tbaa !88
  call void @llvm.memset.p0.i64(ptr align 2 %36, i8 0, i64 32, i1 false)
  store i32 0, ptr %9, align 4, !tbaa !15
  br label %37

37:                                               ; preds = %79, %35
  %38 = load i32, ptr %9, align 4, !tbaa !15
  %39 = icmp slt i32 %38, 4
  br i1 %39, label %40, label %82

40:                                               ; preds = %37
  %41 = getelementptr inbounds [16 x i16], ptr %13, i64 0, i64 0
  %42 = load i32, ptr %9, align 4, !tbaa !15
  %43 = sext i32 %42 to i64
  %44 = getelementptr inbounds i16, ptr %41, i64 %43
  %45 = getelementptr inbounds [4 x i16], ptr %14, i64 0, i64 0
  call void @iadst4_1d(ptr noundef %44, i64 noundef 4, ptr noundef %45, i32 noundef 1)
  store i32 0, ptr %10, align 4, !tbaa !15
  br label %46

46:                                               ; preds = %73, %40
  %47 = load i32, ptr %10, align 4, !tbaa !15
  %48 = icmp slt i32 %47, 4
  br i1 %48, label %49, label %76

49:                                               ; preds = %46
  %50 = load ptr, ptr %11, align 8, !tbaa !10
  %51 = load i32, ptr %10, align 4, !tbaa !15
  %52 = sext i32 %51 to i64
  %53 = load i64, ptr %6, align 8, !tbaa !12
  %54 = mul nsw i64 %52, %53
  %55 = getelementptr inbounds i8, ptr %50, i64 %54
  %56 = load i8, ptr %55, align 1, !tbaa !14
  %57 = zext i8 %56 to i32
  %58 = load i32, ptr %10, align 4, !tbaa !15
  %59 = sext i32 %58 to i64
  %60 = getelementptr inbounds [4 x i16], ptr %14, i64 0, i64 %59
  %61 = load i16, ptr %60, align 2, !tbaa !90
  %62 = sext i16 %61 to i32
  %63 = add i32 %62, 8
  %64 = ashr i32 %63, 4
  %65 = add nsw i32 %57, %64
  %66 = call zeroext i8 @av_clip_uint8_c(i32 noundef %65) #11
  %67 = load ptr, ptr %11, align 8, !tbaa !10
  %68 = load i32, ptr %10, align 4, !tbaa !15
  %69 = sext i32 %68 to i64
  %70 = load i64, ptr %6, align 8, !tbaa !12
  %71 = mul nsw i64 %69, %70
  %72 = getelementptr inbounds i8, ptr %67, i64 %71
  store i8 %66, ptr %72, align 1, !tbaa !14
  br label %73

73:                                               ; preds = %49
  %74 = load i32, ptr %10, align 4, !tbaa !15
  %75 = add nsw i32 %74, 1
  store i32 %75, ptr %10, align 4, !tbaa !15
  br label %46, !llvm.loop !101

76:                                               ; preds = %46
  %77 = load ptr, ptr %11, align 8, !tbaa !10
  %78 = getelementptr inbounds nuw i8, ptr %77, i32 1
  store ptr %78, ptr %11, align 8, !tbaa !10
  br label %79

79:                                               ; preds = %76
  %80 = load i32, ptr %9, align 4, !tbaa !15
  %81 = add nsw i32 %80, 1
  store i32 %81, ptr %9, align 4, !tbaa !15
  br label %37, !llvm.loop !102

82:                                               ; preds = %37
  call void @llvm.lifetime.end.p0(i64 8, ptr %14) #10
  call void @llvm.lifetime.end.p0(i64 32, ptr %13) #10
  call void @llvm.lifetime.end.p0(i64 8, ptr %12) #10
  call void @llvm.lifetime.end.p0(i64 8, ptr %11) #10
  call void @llvm.lifetime.end.p0(i64 4, ptr %10) #10
  call void @llvm.lifetime.end.p0(i64 4, ptr %9) #10
  ret void
}