; Function Attrs: nofree norecurse nosync nounwind memory(argmem: readwrite) uwtable
define internal void @idct_iadst_4x4_add_c(ptr noundef captures(none) %0, i64 noundef %1, ptr noundef captures(none) %2, i32 %3) #2 {
  %5 = alloca [16 x i16], align 16
  %6 = alloca [4 x i16], align 2
  call void @llvm.lifetime.start.p0(i64 32, ptr nonnull %5) #13
  call void @llvm.lifetime.start.p0(i64 8, ptr nonnull %6) #13
  br label %7

7:                                                ; preds = %4, %7
  %indvars.iv = phi i64 [ 0, %4 ], [ %indvars.iv.next, %7 ]
  %8 = getelementptr inbounds nuw i16, ptr %2, i64 %indvars.iv
  %.idx = shl nuw nsw i64 %indvars.iv, 3
  %9 = getelementptr inbounds nuw i8, ptr %5, i64 %.idx
  %10 = load i16, ptr %8, align 2, !tbaa !80
  %11 = sext i16 %10 to i32
  %12 = getelementptr inbounds nuw i8, ptr %8, i64 16
  %13 = load i16, ptr %12, align 2, !tbaa !80
  %14 = sext i16 %13 to i32
  %15 = add nsw i32 %14, %11
  %16 = mul nsw i32 %15, 11585
  %17 = add nsw i32 %16, 8192
  %18 = ashr i32 %17, 14
  %19 = sub nsw i32 %11, %14
  %20 = mul nsw i32 %19, 11585
  %21 = add nsw i32 %20, 8192
  %22 = ashr i32 %21, 14
  %23 = getelementptr inbounds nuw i8, ptr %8, i64 8
  %24 = load i16, ptr %23, align 2, !tbaa !80
  %25 = sext i16 %24 to i32
  %26 = mul nsw i32 %25, 6270
  %27 = getelementptr inbounds nuw i8, ptr %8, i64 24
  %28 = load i16, ptr %27, align 2, !tbaa !80
  %29 = sext i16 %28 to i32
  %.neg.i = mul nsw i32 %29, -15137
  %30 = add nsw i32 %26, 8192
  %31 = add nsw i32 %30, %.neg.i
  %32 = ashr i32 %31, 14
  %33 = mul nsw i32 %25, 15137
  %34 = mul nsw i32 %29, 6270
  %35 = add nsw i32 %33, 8192
  %36 = add nsw i32 %35, %34
  %37 = ashr i32 %36, 14
  %38 = add nsw i32 %37, %18
  %39 = trunc i32 %38 to i16
  store i16 %39, ptr %9, align 8, !tbaa !80
  %40 = add nsw i32 %32, %22
  %41 = trunc i32 %40 to i16
  %42 = getelementptr inbounds nuw i8, ptr %9, i64 2
  store i16 %41, ptr %42, align 2, !tbaa !80
  %43 = sub nsw i32 %22, %32
  %44 = trunc i32 %43 to i16
  %45 = getelementptr inbounds nuw i8, ptr %9, i64 4
  store i16 %44, ptr %45, align 4, !tbaa !80
  %46 = sub nsw i32 %18, %37
  %47 = trunc i32 %46 to i16
  %48 = getelementptr inbounds nuw i8, ptr %9, i64 6
  store i16 %47, ptr %48, align 2, !tbaa !80
  %indvars.iv.next = add nuw nsw i64 %indvars.iv, 1
  %exitcond.not = icmp eq i64 %indvars.iv.next, 4
  br i1 %exitcond.not, label %49, label %7, !llvm.loop !90

49:                                               ; preds = %7
  tail call void @llvm.memset.p0.i64(ptr noundef nonnull align 2 dereferenceable(32) %2, i8 0, i64 32, i1 false)
  %50 = getelementptr inbounds nuw i8, ptr %6, i64 2
  %51 = getelementptr inbounds nuw i8, ptr %6, i64 4
  %52 = getelementptr inbounds nuw i8, ptr %6, i64 6
  br label %53

53:                                               ; preds = %49, %106
  %indvars.iv34 = phi i64 [ 0, %49 ], [ %indvars.iv.next35, %106 ]
  %.028 = phi ptr [ %0, %49 ], [ %107, %106 ]
  %54 = getelementptr inbounds nuw i16, ptr %5, i64 %indvars.iv34
  %55 = load i16, ptr %54, align 2, !tbaa !80
  %56 = sext i16 %55 to i32
  %57 = mul nsw i32 %56, 5283
  %58 = getelementptr inbounds nuw i8, ptr %54, i64 16
  %59 = load i16, ptr %58, align 2, !tbaa !80
  %60 = sext i16 %59 to i32
  %61 = mul nsw i32 %60, 15212
  %62 = add nsw i32 %61, %57
  %63 = getelementptr inbounds nuw i8, ptr %54, i64 24
  %64 = load i16, ptr %63, align 2, !tbaa !80
  %65 = sext i16 %64 to i32
  %66 = mul nsw i32 %65, 9929
  %67 = add nsw i32 %62, %66
  %68 = mul nsw i32 %56, 9929
  %.neg.i23 = mul nsw i32 %60, -5283
  %69 = add nsw i32 %.neg.i23, %68
  %.neg31.i = mul nsw i32 %65, -15212
  %70 = add nsw i32 %69, %.neg31.i
  %71 = sub nsw i32 %56, %60
  %72 = add nsw i32 %71, %65
  %73 = mul nsw i32 %72, 13377
  %74 = getelementptr inbounds nuw i8, ptr %54, i64 8
  %75 = load i16, ptr %74, align 2, !tbaa !80
  %76 = sext i16 %75 to i32
  %77 = mul nsw i32 %76, 13377
  %78 = add nsw i32 %77, 8192
  %79 = add nsw i32 %78, %67
  %80 = lshr i32 %79, 14
  %81 = trunc i32 %80 to i16
  store i16 %81, ptr %6, align 2, !tbaa !80
  %82 = add nsw i32 %78, %70
  %83 = lshr i32 %82, 14
  %84 = trunc i32 %83 to i16
  store i16 %84, ptr %50, align 2, !tbaa !80
  %85 = add nsw i32 %73, 8192
  %86 = lshr i32 %85, 14
  %87 = trunc i32 %86 to i16
  store i16 %87, ptr %51, align 2, !tbaa !80
  %88 = add nsw i32 %70, 8192
  %89 = add nsw i32 %88, %67
  %90 = sub i32 %89, %77
  %91 = lshr i32 %90, 14
  %92 = trunc i32 %91 to i16
  store i16 %92, ptr %52, align 2, !tbaa !80
  br label %93

93:                                               ; preds = %53, %93
  %indvars.iv30 = phi i64 [ 0, %53 ], [ %indvars.iv.next31, %93 ]
  %94 = mul nsw i64 %1, %indvars.iv30
  %95 = getelementptr inbounds i8, ptr %.028, i64 %94
  %96 = load i8, ptr %95, align 1, !tbaa !8
  %97 = zext i8 %96 to i32
  %98 = getelementptr inbounds nuw [4 x i16], ptr %6, i64 0, i64 %indvars.iv30
  %99 = load i16, ptr %98, align 2, !tbaa !80
  %100 = sext i16 %99 to i32
  %101 = add nsw i32 %100, 8
  %102 = ashr i32 %101, 4
  %103 = add nsw i32 %102, %97
  %.not.i = icmp ult i32 %103, 256
  %isnotneg.i = icmp sgt i32 %103, -1
  %104 = sext i1 %isnotneg.i to i8
  %105 = trunc nuw i32 %103 to i8
  %.0.i = select i1 %.not.i, i8 %105, i8 %104
  store i8 %.0.i, ptr %95, align 1, !tbaa !8
  %indvars.iv.next31 = add nuw nsw i64 %indvars.iv30, 1
  %exitcond33.not = icmp eq i64 %indvars.iv.next31, 4
  br i1 %exitcond33.not, label %106, label %93, !llvm.loop !91

106:                                              ; preds = %93
  %107 = getelementptr inbounds nuw i8, ptr %.028, i64 1
  %indvars.iv.next35 = add nuw nsw i64 %indvars.iv34, 1
  %exitcond37.not = icmp eq i64 %indvars.iv.next35, 4
  br i1 %exitcond37.not, label %108, label %53, !llvm.loop !92

108:                                              ; preds = %106
  call void @llvm.lifetime.end.p0(i64 8, ptr nonnull %6) #13
  call void @llvm.lifetime.end.p0(i64 32, ptr nonnull %5) #13
  ret void
}